target datalayout = "e-m:e-p270:32:32-p271:32:32-p272:64:64-i64:64-i128:128-f80:128-n8:16:32:64-S128"
target triple = "x86_64-pc-linux-gnu"

%struct.stmm_table = type { ptr, ptr, i32, i32, i32, i32, double, ptr, ptr }

; Function Attrs: nounwind uwtable
define ptr @stmm_init_table_with_params(ptr noundef %0, ptr noundef %1, i32 noundef %2, i32 noundef %3, double noundef %4, i32 noundef %5) #0 {
  %7 = alloca ptr, align 8
  %8 = alloca ptr, align 8
  %9 = alloca ptr, align 8
  %10 = alloca i32, align 4
  %11 = alloca i32, align 4
  %12 = alloca double, align 8
  %13 = alloca i32, align 4
  %14 = alloca i32, align 4
  %15 = alloca ptr, align 8
  store ptr %0, ptr %8, align 8
  store ptr %1, ptr %9, align 8
  store i32 %2, ptr %10, align 4
  store i32 %3, ptr %11, align 4
  store double %4, ptr %12, align 8
  store i32 %5, ptr %13, align 4
  %16 = call noalias ptr @malloc(i64 noundef 56) #5
  store ptr %16, ptr %15, align 8
  %17 = load ptr, ptr %15, align 8
  %18 = icmp eq ptr %17, null
  br i1 %18, label %19, label %20

19:                                               ; preds = %6
  store ptr null, ptr %7, align 8
  br label %82

20:                                               ; preds = %6
  %21 = load ptr, ptr %8, align 8
  %22 = load ptr, ptr %15, align 8
  %23 = getelementptr inbounds %struct.stmm_table, ptr %22, i32 0, i32 0
  store ptr %21, ptr %23, align 8
  %24 = load ptr, ptr %9, align 8
  %25 = load ptr, ptr %15, align 8
  %26 = getelementptr inbounds %struct.stmm_table, ptr %25, i32 0, i32 1
  store ptr %24, ptr %26, align 8
  %27 = load ptr, ptr %15, align 8
  %28 = getelementptr inbounds %struct.stmm_table, ptr %27, i32 0, i32 3
  store i32 0, ptr %28, align 4
  %29 = load i32, ptr %11, align 4
  %30 = load ptr, ptr %15, align 8
  %31 = getelementptr inbounds %struct.stmm_table, ptr %30, i32 0, i32 4
  store i32 %29, ptr %31, align 8
  %32 = load double, ptr %12, align 8
  %33 = load ptr, ptr %15, align 8
  %34 = getelementptr inbounds %struct.stmm_table, ptr %33, i32 0, i32 6
  store double %32, ptr %34, align 8
  %35 = load i32, ptr %13, align 4
  %36 = load ptr, ptr %15, align 8
  %37 = getelementptr inbounds %struct.stmm_table, ptr %36, i32 0, i32 5
  store i32 %35, ptr %37, align 4
  %38 = load i32, ptr %10, align 4
  %39 = icmp sle i32 %38, 0
  br i1 %39, label %40, label %41

40:                                               ; preds = %20
  store i32 1, ptr %10, align 4
  br label %41

41:                                               ; preds = %40, %20
  %42 = load i32, ptr %10, align 4
  %43 = load ptr, ptr %15, align 8
  %44 = getelementptr inbounds %struct.stmm_table, ptr %43, i32 0, i32 2
  store i32 %42, ptr %44, align 8
  %45 = load i32, ptr %10, align 4
  %46 = sext i32 %45 to i64
  %47 = mul i64 8, %46
  %48 = call noalias ptr @malloc(i64 noundef %47) #5
  %49 = load ptr, ptr %15, align 8
  %50 = getelementptr inbounds %struct.stmm_table, ptr %49, i32 0, i32 7
  store ptr %48, ptr %50, align 8
  %51 = load ptr, ptr %15, align 8
  %52 = getelementptr inbounds %struct.stmm_table, ptr %51, i32 0, i32 7
  %53 = load ptr, ptr %52, align 8
  %54 = icmp eq ptr %53, null
  br i1 %54, label %55, label %62

55:                                               ; preds = %41
  %56 = load ptr, ptr %15, align 8
  %57 = icmp ne ptr %56, null
  br i1 %57, label %58, label %60

58:                                               ; preds = %55
  %59 = load ptr, ptr %15, align 8
  call void @free(ptr noundef %59) #6
  store ptr null, ptr %15, align 8
  br label %61

60:                                               ; preds = %55
  br label %61

61:                                               ; preds = %60, %58
  store ptr null, ptr %7, align 8
  br label %82

62:                                               ; preds = %41
  store i32 0, ptr %14, align 4
  br label %63

63:                                               ; preds = %74, %62
  %64 = load i32, ptr %14, align 4
  %65 = load i32, ptr %10, align 4
  %66 = icmp slt i32 %64, %65
  br i1 %66, label %67, label %77

67:                                               ; preds = %63
  %68 = load ptr, ptr %15, align 8
  %69 = getelementptr inbounds %struct.stmm_table, ptr %68, i32 0, i32 7
  %70 = load ptr, ptr %69, align 8
  %71 = load i32, ptr %14, align 4
  %72 = sext i32 %71 to i64
  %73 = getelementptr inbounds ptr, ptr %70, i64 %72
  store ptr null, ptr %73, align 8
  br label %74

74:                                               ; preds = %67
  %75 = load i32, ptr %14, align 4
  %76 = add nsw i32 %75, 1
  store i32 %76, ptr %14, align 4
  br label %63, !llvm.loop !4

77:                                               ; preds = %63
  %78 = call ptr @Extra_MmFixedStart(i32 noundef 24)
  %79 = load ptr, ptr %15, align 8
  %80 = getelementptr inbounds %struct.stmm_table, ptr %79, i32 0, i32 8
  store ptr %78, ptr %80, align 8
  %81 = load ptr, ptr %15, align 8
  store ptr %81, ptr %7, align 8
  br label %82

82:                                               ; preds = %77, %61, %19
  %83 = load ptr, ptr %7, align 8
  ret ptr %83
}