; Function Attrs: nounwind uwtable
define noalias noundef ptr @stmm_init_table_with_params(ptr noundef %0, ptr noundef %1, i32 noundef %2, i32 noundef %3, double noundef %4, i32 noundef %5) local_unnamed_addr #0 {
  %7 = tail call noalias dereferenceable_or_null(56) ptr @malloc(i64 noundef 56) #12
  %8 = icmp eq ptr %7, null
  br i1 %8, label %23, label %9

9:                                                ; preds = %6
  store ptr %0, ptr %7, align 8
  %10 = getelementptr inbounds nuw i8, ptr %7, i64 8
  store ptr %1, ptr %10, align 8
  %11 = getelementptr inbounds nuw i8, ptr %7, i64 20
  store i32 0, ptr %11, align 4
  %12 = getelementptr inbounds nuw i8, ptr %7, i64 24
  store i32 %3, ptr %12, align 8
  %13 = getelementptr inbounds nuw i8, ptr %7, i64 32
  store double %4, ptr %13, align 8
  %14 = getelementptr inbounds nuw i8, ptr %7, i64 28
  store i32 %5, ptr %14, align 4
  %spec.store.select = tail call i32 @llvm.smax.i32(i32 %2, i32 1)
  %15 = getelementptr inbounds nuw i8, ptr %7, i64 16
  store i32 %spec.store.select, ptr %15, align 8
  %16 = zext nneg i32 %spec.store.select to i64
  %17 = shl nuw nsw i64 %16, 3
  %calloc = tail call ptr @calloc(i64 1, i64 %17)
  %18 = getelementptr inbounds nuw i8, ptr %7, i64 40
  store ptr %calloc, ptr %18, align 8
  %19 = icmp eq ptr %calloc, null
  br i1 %19, label %22, label %.preheader.preheader

.preheader.preheader:                             ; preds = %9
  %20 = tail call ptr @Extra_MmFixedStart(i32 noundef 24) #13
  %21 = getelementptr inbounds nuw i8, ptr %7, i64 48
  store ptr %20, ptr %21, align 8
  br label %23

22:                                               ; preds = %9
  tail call void @free(ptr noundef nonnull %7) #13
  br label %23

23:                                               ; preds = %6, %.preheader.preheader, %22
  %.027 = phi ptr [ null, %22 ], [ %7, %.preheader.preheader ], [ null, %6 ]
  ret ptr %.027
}